; Function Attrs: mustprogress uwtable
define void @_ZN2cv7optflow10GPCDetails25getAllDescriptorsForImageEPKNS_3MatERSt6vectorINS0_18GPCPatchDescriptorESaIS6_EERKNS0_17GPCMatchingParamsEi(ptr noundef %0, ptr noundef nonnull align 8 dereferenceable(24) %1, ptr noundef nonnull readnone align 1 captures(none) dereferenceable(1) %2, i32 noundef %3) local_unnamed_addr #2 align 2 personality ptr @__gxx_personality_v0 {
  %5 = alloca %"class.std::__cxx11::basic_string", align 8
  %6 = alloca %"class.std::allocator.0", align 1
  switch i32 %3, label %9 [
    i32 0, label %7
    i32 1, label %8
  ]

7:                                                ; preds = %4
  tail call void @_ZN2cv7optflow12_GLOBAL__N_128getAllDCTDescriptorsForImageEPKNS_3MatERSt6vectorINS0_18GPCPatchDescriptorESaIS6_EERKNS0_17GPCMatchingParamsE(ptr noundef %0, ptr noundef nonnull align 8 dereferenceable(24) %1, ptr nonnull align 1 poison)
  br label %19

8:                                                ; preds = %4
  tail call void @_ZN2cv7optflow12_GLOBAL__N_128getAllWHTDescriptorsForImageEPKNS_3MatERSt6vectorINS0_18GPCPatchDescriptorESaIS6_EERKNS0_17GPCMatchingParamsE(ptr noundef %0, ptr noundef nonnull align 8 dereferenceable(24) %1, ptr nonnull align 1 poison)
  br label %19

9:                                                ; preds = %4
  call void @llvm.lifetime.start.p0(i64 32, ptr nonnull %5) #27
  call void @llvm.lifetime.start.p0(i64 1, ptr nonnull %6) #27
  call void @_ZNSt7__cxx1112basic_stringIcSt11char_traitsIcESaIcEEC2EPKcRKS3_(ptr noundef nonnull align 8 dereferenceable(32) %5, ptr noundef nonnull @.str, ptr noundef nonnull align 1 dereferenceable(1) %6)
  invoke void @_ZN2cv5errorEiRKNSt7__cxx1112basic_stringIcSt11char_traitsIcESaIcEEEPKcS9_i(i32 noundef -5, ptr noundef nonnull align 8 dereferenceable(32) %5, ptr noundef nonnull @__func__._ZN2cv7optflow10GPCDetails25getAllDescriptorsForImageEPKNS_3MatERSt6vectorINS0_18GPCPatchDescriptorESaIS6_EERKNS0_17GPCMatchingParamsEi, ptr noundef nonnull @.str.1, i32 noundef 513) #28
          to label %10 unwind label %11

10:                                               ; preds = %9
  unreachable

11:                                               ; preds = %9
  %12 = landingpad { ptr, i32 }
          cleanup
  %13 = load ptr, ptr %5, align 8, !tbaa !13
  %14 = getelementptr inbounds nuw i8, ptr %5, i64 16
  %15 = icmp eq ptr %13, %14
  br i1 %15, label %_ZNKSt7__cxx1112basic_stringIcSt11char_traitsIcESaIcEE11_M_is_localEv.exit.thread.i.i, label %_ZNKSt7__cxx1112basic_stringIcSt11char_traitsIcESaIcEE11_M_is_localEv.exit.i.i

_ZNKSt7__cxx1112basic_stringIcSt11char_traitsIcESaIcEE11_M_is_localEv.exit.thread.i.i: ; preds = %11
  %16 = getelementptr inbounds nuw i8, ptr %5, i64 8
  %17 = load i64, ptr %16, align 8, !tbaa !19
  %18 = icmp ult i64 %17, 16
  call void @llvm.assume(i1 %18)
  br label %_ZNSt7__cxx1112basic_stringIcSt11char_traitsIcESaIcEED2Ev.exit

_ZNKSt7__cxx1112basic_stringIcSt11char_traitsIcESaIcEE11_M_is_localEv.exit.i.i: ; preds = %11
  call void @_ZdlPv(ptr noundef %13) #29
  br label %_ZNSt7__cxx1112basic_stringIcSt11char_traitsIcESaIcEED2Ev.exit

_ZNSt7__cxx1112basic_stringIcSt11char_traitsIcESaIcEED2Ev.exit: ; preds = %_ZNKSt7__cxx1112basic_stringIcSt11char_traitsIcESaIcEE11_M_is_localEv.exit.i.i, %_ZNKSt7__cxx1112basic_stringIcSt11char_traitsIcESaIcEE11_M_is_localEv.exit.thread.i.i
  call void @llvm.lifetime.end.p0(i64 1, ptr nonnull %6) #27
  call void @llvm.lifetime.end.p0(i64 32, ptr nonnull %5) #27
  resume { ptr, i32 } %12

19:                                               ; preds = %8, %7
  ret void
}